ccopy_reg
_reconstructor
p0
(cgoogle.oauth2.credentials
Credentials
p1
c__builtin__
object
p2
Ntp3
Rp4
(dp5
S'_token_uri'
p6
Vhttps://oauth2.googleapis.com/token
p7
sS'_scopes'
p8
(lp9
S'https://www.googleapis.com/auth/documents.readonly'
p10
asS'_id_token'
p11
NsS'token'
p12
Vya29.ImC0B3_XXP7TD0F-WTHpaXVXzZxXW2nLQKvsA9WblhTBA_jurW89qJwX4DUqZiDxpveVWd6_xCBmcI6N2cKZyJ-E49zr0YktPTDuqDyCkbIZmZDpKzkBDwy2dzhfMGlqK44
p13
sS'_refresh_token'
p14
V1//0e7m7v-nVfKwsCgYIARAAGA4SNwF-L9IreT6J06pGGyW4np7ekNYvHUK8aSwE166SomNZK3toqwYoFKfrUx3EBfcWCZZKn-ZVbo0
p15
sS'_client_secret'
p16
VVFTUqn1DijRhhnpeRCMaFgDO
p17
sS'_client_id'
p18
V1078348272891-90ptjs7l8o6ssk4iel8r0hhpka5uu50m.apps.googleusercontent.com
p19
sS'expiry'
p20
cdatetime
datetime
p21
(S'\x07\xe3\x0c\n\x08\x02 \x06\t\xe5'
p22
tp23
Rp24
sb.